target datalayout = "e-m:e-p270:32:32-p271:32:32-p272:64:64-i64:64-i128:128-f80:128-n8:16:32:64-S128"
target triple = "x86_64-pc-linux-gnu"

%struct.ossl_passphrase_data_st = type { i32, %union.anon, i8, ptr, i64 }
%union.anon = type { %struct.anon }
%struct.anon = type { ptr, i64 }
%struct.ossl_param_st = type { ptr, i32, ptr, i64, i64 }
%struct.pvk2key_ctx_st = type { ptr, [256 x i8], ptr, i32 }
%struct.keytype_desc_st = type { i32, ptr, ptr, ptr, ptr, ptr }

@.str.3 = private unnamed_addr constant [5 x i8] c"type\00", align 1
@.str.4 = private unnamed_addr constant [10 x i8] c"data-type\00", align 1
@.str.5 = private unnamed_addr constant [10 x i8] c"reference\00", align 1

; Function Attrs: inlinehint nounwind uwtable
define internal i32 @ERR_GET_REASON(i64 noundef %0) #4 {
  %2 = alloca i32, align 4
  %3 = alloca i64, align 8
  store i64 %0, ptr %3, align 8, !tbaa !28
  %4 = load i64, ptr %3, align 8, !tbaa !28
  %5 = and i64 %4, 2147483648
  %6 = icmp ne i64 %5, 0
  br i1 %6, label %7, label %11

7:                                                ; preds = %1
  %8 = load i64, ptr %3, align 8, !tbaa !28
  %9 = and i64 %8, 2147483647
  %10 = trunc i64 %9 to i32
  store i32 %10, ptr %2, align 4
  br label %15

11:                                               ; preds = %1
  %12 = load i64, ptr %3, align 8, !tbaa !28
  %13 = and i64 %12, 8388607
  %14 = trunc i64 %13 to i32
  store i32 %14, ptr %2, align 4
  br label %15

15:                                               ; preds = %11, %7
  %16 = load i32, ptr %2, align 4
  ret i32 %16
}

; Function Attrs: inlinehint nounwind uwtable
define internal i32 @ERR_GET_LIB(i64 noundef %0) #4 {
  %2 = alloca i32, align 4
  %3 = alloca i64, align 8
  store i64 %0, ptr %3, align 8, !tbaa !28
  %4 = load i64, ptr %3, align 8, !tbaa !28
  %5 = and i64 %4, 2147483648
  %6 = icmp ne i64 %5, 0
  br i1 %6, label %7, label %8

7:                                                ; preds = %1
  store i32 2, ptr %2, align 4
  br label %13

8:                                                ; preds = %1
  %9 = load i64, ptr %3, align 8, !tbaa !28
  %10 = lshr i64 %9, 23
  %11 = and i64 %10, 255
  %12 = trunc i64 %11 to i32
  store i32 %12, ptr %2, align 4
  br label %13

13:                                               ; preds = %8, %7
  %14 = load i32, ptr %2, align 4
  ret i32 %14
}

; Function Attrs: nounwind uwtable
define internal i32 @pvk2key_decode(ptr noundef %0, ptr noundef %1, i32 noundef %2, ptr noundef %3, ptr noundef %4, ptr noundef %5, ptr noundef %6) #0 {
  %8 = alloca i32, align 4
  %9 = alloca ptr, align 8
  %10 = alloca ptr, align 8
  %11 = alloca i32, align 4
  %12 = alloca ptr, align 8
  %13 = alloca ptr, align 8
  %14 = alloca ptr, align 8
  %15 = alloca ptr, align 8
  %16 = alloca ptr, align 8
  %17 = alloca ptr, align 8
  %18 = alloca ptr, align 8
  %19 = alloca i32, align 4
  %20 = alloca i32, align 4
  %21 = alloca %struct.ossl_passphrase_data_st, align 8
  %22 = alloca i32, align 4
  %23 = alloca i32, align 4
  %24 = alloca i32, align 4
  %25 = alloca [4 x %struct.ossl_param_st], align 16
  %26 = alloca i32, align 4
  %27 = alloca %struct.ossl_param_st, align 8
  %28 = alloca %struct.ossl_param_st, align 8
  %29 = alloca %struct.ossl_param_st, align 8
  %30 = alloca %struct.ossl_param_st, align 8
  store ptr %0, ptr %9, align 8, !tbaa !3
  store ptr %1, ptr %10, align 8, !tbaa !11
  store i32 %2, ptr %11, align 4, !tbaa !9
  store ptr %3, ptr %12, align 8, !tbaa !3
  store ptr %4, ptr %13, align 8, !tbaa !3
  store ptr %5, ptr %14, align 8, !tbaa !3
  store ptr %6, ptr %15, align 8, !tbaa !3
  call void @llvm.lifetime.start.p0(i64 8, ptr %16) #6
  %31 = load ptr, ptr %9, align 8, !tbaa !3
  store ptr %31, ptr %16, align 8, !tbaa !7
  call void @llvm.lifetime.start.p0(i64 8, ptr %17) #6
  %32 = load ptr, ptr %16, align 8, !tbaa !7
  %33 = getelementptr inbounds nuw %struct.pvk2key_ctx_st, ptr %32, i32 0, i32 0
  %34 = load ptr, ptr %33, align 8, !tbaa !13
  %35 = load ptr, ptr %10, align 8, !tbaa !11
  %36 = call ptr @ossl_bio_new_from_core_bio(ptr noundef %34, ptr noundef %35)
  store ptr %36, ptr %17, align 8, !tbaa !17
  call void @llvm.lifetime.start.p0(i64 8, ptr %18) #6
  store ptr null, ptr %18, align 8, !tbaa !3
  call void @llvm.lifetime.start.p0(i64 4, ptr %19) #6
  store i32 0, ptr %19, align 4, !tbaa !9
  %37 = load ptr, ptr %17, align 8, !tbaa !17
  %38 = icmp eq ptr %37, null
  br i1 %38, label %39, label %40

39:                                               ; preds = %7
  store i32 0, ptr %8, align 4
  store i32 1, ptr %20, align 4
  br label %156

40:                                               ; preds = %7
  %41 = load i32, ptr %11, align 4, !tbaa !9
  %42 = load ptr, ptr %16, align 8, !tbaa !7
  %43 = getelementptr inbounds nuw %struct.pvk2key_ctx_st, ptr %42, i32 0, i32 3
  store i32 %41, ptr %43, align 8, !tbaa !19
  %44 = load i32, ptr %11, align 4, !tbaa !9
  %45 = icmp eq i32 %44, 0
  br i1 %45, label %50, label %46

46:                                               ; preds = %40
  %47 = load i32, ptr %11, align 4, !tbaa !9
  %48 = and i32 %47, 1
  %49 = icmp ne i32 %48, 0
  br i1 %49, label %50, label %107

50:                                               ; preds = %46, %40
  %51 = load ptr, ptr %16, align 8, !tbaa !7
  %52 = getelementptr inbounds nuw %struct.pvk2key_ctx_st, ptr %51, i32 0, i32 2
  %53 = load ptr, ptr %52, align 8, !tbaa !20
  %54 = getelementptr inbounds nuw %struct.keytype_desc_st, ptr %53, i32 0, i32 3
  %55 = load ptr, ptr %54, align 8, !tbaa !21
  %56 = icmp ne ptr %55, null
  br i1 %56, label %57, label %107

57:                                               ; preds = %50
  call void @llvm.lifetime.start.p0(i64 48, ptr %21) #6
  call void @llvm.lifetime.start.p0(i64 4, ptr %22) #6
  call void @llvm.lifetime.start.p0(i64 4, ptr %23) #6
  call void @llvm.lifetime.start.p0(i64 4, ptr %24) #6
  call void @llvm.memset.p0.i64(ptr align 8 %21, i8 0, i64 48, i1 false)
  %58 = load ptr, ptr %14, align 8, !tbaa !3
  %59 = load ptr, ptr %15, align 8, !tbaa !3
  %60 = call i32 @ossl_pw_set_ossl_passphrase_cb(ptr noundef %21, ptr noundef %58, ptr noundef %59)
  %61 = icmp ne i32 %60, 0
  br i1 %61, label %63, label %62

62:                                               ; preds = %57
  store i32 2, ptr %20, align 4
  br label %104

63:                                               ; preds = %57
  %64 = load ptr, ptr %16, align 8, !tbaa !7
  %65 = getelementptr inbounds nuw %struct.pvk2key_ctx_st, ptr %64, i32 0, i32 2
  %66 = load ptr, ptr %65, align 8, !tbaa !20
  %67 = getelementptr inbounds nuw %struct.keytype_desc_st, ptr %66, i32 0, i32 3
  %68 = load ptr, ptr %67, align 8, !tbaa !21
  %69 = load ptr, ptr %17, align 8, !tbaa !17
  %70 = load ptr, ptr %16, align 8, !tbaa !7
  %71 = getelementptr inbounds nuw %struct.pvk2key_ctx_st, ptr %70, i32 0, i32 0
  %72 = load ptr, ptr %71, align 8, !tbaa !13
  %73 = call ptr @ossl_prov_ctx_get0_libctx(ptr noundef %72)
  %74 = load ptr, ptr %16, align 8, !tbaa !7
  %75 = getelementptr inbounds nuw %struct.pvk2key_ctx_st, ptr %74, i32 0, i32 1
  %76 = getelementptr inbounds [256 x i8], ptr %75, i64 0, i64 0
  %77 = call ptr %68(ptr noundef %69, ptr noundef @ossl_pw_pvk_password, ptr noundef %21, ptr noundef %73, ptr noundef %76)
  store ptr %77, ptr %18, align 8, !tbaa !3
  %78 = call i64 @ERR_peek_last_error()
  %79 = trunc i64 %78 to i32
  store i32 %79, ptr %22, align 4, !tbaa !9
  %80 = load i32, ptr %22, align 4, !tbaa !9
  %81 = sext i32 %80 to i64
  %82 = call i32 @ERR_GET_LIB(i64 noundef %81)
  store i32 %82, ptr %23, align 4, !tbaa !9
  %83 = load i32, ptr %22, align 4, !tbaa !9
  %84 = sext i32 %83 to i64
  %85 = call i32 @ERR_GET_REASON(i64 noundef %84)
  store i32 %85, ptr %24, align 4, !tbaa !9
  %86 = load i32, ptr %23, align 4, !tbaa !9
  %87 = icmp eq i32 %86, 9
  br i1 %87, label %88, label %96

88:                                               ; preds = %63
  %89 = load i32, ptr %24, align 4, !tbaa !9
  %90 = icmp eq i32 %89, 104
  br i1 %90, label %94, label %91

91:                                               ; preds = %88
  %92 = load i32, ptr %24, align 4, !tbaa !9
  %93 = icmp eq i32 %92, 101
  br i1 %93, label %94, label %96

94:                                               ; preds = %91, %88
  %95 = call i32 @ERR_clear_last_mark()
  store i32 2, ptr %20, align 4
  br label %104

96:                                               ; preds = %91, %63
  %97 = load i32, ptr %11, align 4, !tbaa !9
  %98 = icmp ne i32 %97, 0
  br i1 %98, label %99, label %103

99:                                               ; preds = %96
  %100 = load ptr, ptr %18, align 8, !tbaa !3
  %101 = icmp eq ptr %100, null
  br i1 %101, label %102, label %103

102:                                              ; preds = %99
  store i32 3, ptr %20, align 4
  br label %104

103:                                              ; preds = %99, %96
  store i32 0, ptr %20, align 4
  br label %104

104:                                              ; preds = %102, %94, %62, %103
  call void @llvm.lifetime.end.p0(i64 4, ptr %24) #6
  call void @llvm.lifetime.end.p0(i64 4, ptr %23) #6
  call void @llvm.lifetime.end.p0(i64 4, ptr %22) #6
  call void @llvm.lifetime.end.p0(i64 48, ptr %21) #6
  %105 = load i32, ptr %20, align 4
  switch i32 %105, label %156 [
    i32 0, label %106
    i32 3, label %126
    i32 2, label %146
  ]

106:                                              ; preds = %104
  br label %107

107:                                              ; preds = %106, %50, %46
  %108 = load ptr, ptr %18, align 8, !tbaa !3
  %109 = icmp ne ptr %108, null
  br i1 %109, label %110, label %125

110:                                              ; preds = %107
  %111 = load ptr, ptr %16, align 8, !tbaa !7
  %112 = getelementptr inbounds nuw %struct.pvk2key_ctx_st, ptr %111, i32 0, i32 2
  %113 = load ptr, ptr %112, align 8, !tbaa !20
  %114 = getelementptr inbounds nuw %struct.keytype_desc_st, ptr %113, i32 0, i32 4
  %115 = load ptr, ptr %114, align 8, !tbaa !25
  %116 = icmp ne ptr %115, null
  br i1 %116, label %117, label %125

117:                                              ; preds = %110
  %118 = load ptr, ptr %16, align 8, !tbaa !7
  %119 = getelementptr inbounds nuw %struct.pvk2key_ctx_st, ptr %118, i32 0, i32 2
  %120 = load ptr, ptr %119, align 8, !tbaa !20
  %121 = getelementptr inbounds nuw %struct.keytype_desc_st, ptr %120, i32 0, i32 4
  %122 = load ptr, ptr %121, align 8, !tbaa !25
  %123 = load ptr, ptr %18, align 8, !tbaa !3
  %124 = load ptr, ptr %16, align 8, !tbaa !7
  call void %122(ptr noundef %123, ptr noundef %124)
  br label %125

125:                                              ; preds = %117, %110, %107
  br label %126

126:                                              ; preds = %125, %104
  store i32 1, ptr %19, align 4, !tbaa !9
  %127 = load ptr, ptr %17, align 8, !tbaa !17
  %128 = call i32 @BIO_free(ptr noundef %127)
  store ptr null, ptr %17, align 8, !tbaa !17
  %129 = load ptr, ptr %18, align 8, !tbaa !3
  %130 = icmp ne ptr %129, null
  br i1 %130, label %131, label %145

131:                                              ; preds = %126
  call void @llvm.lifetime.start.p0(i64 160, ptr %25) #6
  call void @llvm.lifetime.start.p0(i64 4, ptr %26) #6
  store i32 2, ptr %26, align 4, !tbaa !9
  %132 = getelementptr inbounds [4 x %struct.ossl_param_st], ptr %25, i64 0, i64 0
  call void @llvm.lifetime.start.p0(i64 40, ptr %27) #6
  call void @OSSL_PARAM_construct_int(ptr dead_on_unwind writable sret(%struct.ossl_param_st) align 8 %27, ptr noundef @.str.3, ptr noundef %26)
  call void @llvm.memcpy.p0.p0.i64(ptr align 16 %132, ptr align 8 %27, i64 40, i1 false), !tbaa.struct !26
  call void @llvm.lifetime.end.p0(i64 40, ptr %27) #6
  %133 = getelementptr inbounds [4 x %struct.ossl_param_st], ptr %25, i64 0, i64 1
  call void @llvm.lifetime.start.p0(i64 40, ptr %28) #6
  %134 = load ptr, ptr %16, align 8, !tbaa !7
  %135 = getelementptr inbounds nuw %struct.pvk2key_ctx_st, ptr %134, i32 0, i32 2
  %136 = load ptr, ptr %135, align 8, !tbaa !20
  %137 = getelementptr inbounds nuw %struct.keytype_desc_st, ptr %136, i32 0, i32 1
  %138 = load ptr, ptr %137, align 8, !tbaa !30
  call void @OSSL_PARAM_construct_utf8_string(ptr dead_on_unwind writable sret(%struct.ossl_param_st) align 8 %28, ptr noundef @.str.4, ptr noundef %138, i64 noundef 0)
  call void @llvm.memcpy.p0.p0.i64(ptr align 8 %133, ptr align 8 %28, i64 40, i1 false), !tbaa.struct !26
  call void @llvm.lifetime.end.p0(i64 40, ptr %28) #6
  %139 = getelementptr inbounds [4 x %struct.ossl_param_st], ptr %25, i64 0, i64 2
  call void @llvm.lifetime.start.p0(i64 40, ptr %29) #6
  call void @OSSL_PARAM_construct_octet_string(ptr dead_on_unwind writable sret(%struct.ossl_param_st) align 8 %29, ptr noundef @.str.5, ptr noundef %18, i64 noundef 8)
  call void @llvm.memcpy.p0.p0.i64(ptr align 16 %139, ptr align 8 %29, i64 40, i1 false), !tbaa.struct !26
  call void @llvm.lifetime.end.p0(i64 40, ptr %29) #6
  %140 = getelementptr inbounds [4 x %struct.ossl_param_st], ptr %25, i64 0, i64 3
  call void @llvm.lifetime.start.p0(i64 40, ptr %30) #6
  call void @OSSL_PARAM_construct_end(ptr dead_on_unwind writable sret(%struct.ossl_param_st) align 8 %30)
  call void @llvm.memcpy.p0.p0.i64(ptr align 8 %140, ptr align 8 %30, i64 40, i1 false), !tbaa.struct !26
  call void @llvm.lifetime.end.p0(i64 40, ptr %30) #6
  %141 = load ptr, ptr %12, align 8, !tbaa !3
  %142 = getelementptr inbounds [4 x %struct.ossl_param_st], ptr %25, i64 0, i64 0
  %143 = load ptr, ptr %13, align 8, !tbaa !3
  %144 = call i32 %141(ptr noundef %142, ptr noundef %143)
  store i32 %144, ptr %19, align 4, !tbaa !9
  call void @llvm.lifetime.end.p0(i64 4, ptr %26) #6
  call void @llvm.lifetime.end.p0(i64 160, ptr %25) #6
  br label %145

145:                                              ; preds = %131, %126
  br label %146

146:                                              ; preds = %145, %104
  %147 = load ptr, ptr %17, align 8, !tbaa !17
  %148 = call i32 @BIO_free(ptr noundef %147)
  %149 = load ptr, ptr %16, align 8, !tbaa !7
  %150 = getelementptr inbounds nuw %struct.pvk2key_ctx_st, ptr %149, i32 0, i32 2
  %151 = load ptr, ptr %150, align 8, !tbaa !20
  %152 = getelementptr inbounds nuw %struct.keytype_desc_st, ptr %151, i32 0, i32 5
  %153 = load ptr, ptr %152, align 8, !tbaa !31
  %154 = load ptr, ptr %18, align 8, !tbaa !3
  call void %153(ptr noundef %154)
  %155 = load i32, ptr %19, align 4, !tbaa !9
  store i32 %155, ptr %8, align 4
  store i32 1, ptr %20, align 4
  br label %156

156:                                              ; preds = %146, %104, %39
  call void @llvm.lifetime.end.p0(i64 4, ptr %19) #6
  call void @llvm.lifetime.end.p0(i64 8, ptr %18) #6
  call void @llvm.lifetime.end.p0(i64 8, ptr %17) #6
  call void @llvm.lifetime.end.p0(i64 8, ptr %16) #6
  %157 = load i32, ptr %8, align 4
  ret i32 %157
}