; Function Attrs: nounwind uwtable
define internal i32 @pvk2key_decode(ptr noundef %0, ptr noundef %1, i32 noundef %2, ptr noundef readonly captures(none) %3, ptr noundef %4, ptr noundef %5, ptr noundef %6) #0 {
  %8 = alloca ptr, align 8
  %9 = alloca %struct.ossl_passphrase_data_st, align 8
  %10 = alloca [4 x %struct.ossl_param_st], align 16
  %11 = alloca i32, align 4
  %12 = alloca %struct.ossl_param_st, align 8
  %13 = alloca %struct.ossl_param_st, align 8
  %14 = alloca %struct.ossl_param_st, align 8
  %15 = load ptr, ptr %0, align 8, !tbaa !3
  %16 = tail call ptr @ossl_bio_new_from_core_bio(ptr noundef %15, ptr noundef %1) #6
  call void @llvm.lifetime.start.p0(i64 8, ptr nonnull %8) #6
  store ptr null, ptr %8, align 8, !tbaa !12
  %17 = icmp eq ptr %16, null
  br i1 %17, label %70, label %18

18:                                               ; preds = %7
  %19 = getelementptr inbounds nuw i8, ptr %0, i64 272
  store i32 %2, ptr %19, align 8, !tbaa !13
  %20 = icmp ne i32 %2, 0
  %21 = and i32 %2, 1
  %.not = icmp eq i32 %21, 0
  %or.cond47 = and i1 %20, %.not
  br i1 %or.cond47, label %.thread54, label %22

22:                                               ; preds = %18
  %23 = getelementptr inbounds nuw i8, ptr %0, i64 264
  %24 = load ptr, ptr %23, align 8, !tbaa !11
  %25 = getelementptr inbounds nuw i8, ptr %24, i64 24
  %26 = load ptr, ptr %25, align 8, !tbaa !14
  %.not42 = icmp eq ptr %26, null
  br i1 %.not42, label %.thread54, label %27

27:                                               ; preds = %22
  call void @llvm.lifetime.start.p0(i64 48, ptr nonnull %9) #6
  call void @llvm.memset.p0.i64(ptr noundef nonnull align 8 dereferenceable(48) %9, i8 0, i64 48, i1 false)
  %28 = call i32 @ossl_pw_set_ossl_passphrase_cb(ptr noundef nonnull %9, ptr noundef %5, ptr noundef %6) #6
  %.not43 = icmp eq i32 %28, 0
  br i1 %.not43, label %.thread, label %29

29:                                               ; preds = %27
  %30 = load ptr, ptr %23, align 8, !tbaa !11
  %31 = getelementptr inbounds nuw i8, ptr %30, i64 24
  %32 = load ptr, ptr %31, align 8, !tbaa !14
  %33 = load ptr, ptr %0, align 8, !tbaa !3
  %34 = call ptr @ossl_prov_ctx_get0_libctx(ptr noundef %33) #6
  %35 = getelementptr inbounds nuw i8, ptr %0, i64 8
  %36 = call ptr %32(ptr noundef nonnull %16, ptr noundef nonnull @ossl_pw_pvk_password, ptr noundef nonnull %9, ptr noundef %34, ptr noundef nonnull %35) #6
  store ptr %36, ptr %8, align 8, !tbaa !12
  %37 = call i64 @ERR_peek_last_error() #6
  %38 = and i64 %37, 2147483648
  %.not.i = icmp eq i64 %38, 0
  %39 = trunc i64 %37 to i32
  %.mask = and i32 %39, -8388608
  %40 = icmp eq i32 %.mask, 75497472
  %41 = and i1 %.not.i, %40
  br i1 %41, label %42, label %45

42:                                               ; preds = %29
  %.0.i49 = and i32 %39, 8388607
  switch i32 %.0.i49, label %45 [
    i32 104, label %43
    i32 101, label %43
  ]

43:                                               ; preds = %42, %42
  %44 = call i32 @ERR_clear_last_mark() #6
  br label %.thread

45:                                               ; preds = %42, %29
  call void @llvm.lifetime.end.p0(i64 48, ptr nonnull %9) #6
  %.not44 = icmp eq ptr %36, null
  br i1 %.not44, label %.thread54, label %46

.thread:                                          ; preds = %43, %27
  call void @llvm.lifetime.end.p0(i64 48, ptr nonnull %9) #6
  br label %63

46:                                               ; preds = %45
  %47 = getelementptr inbounds nuw i8, ptr %0, i64 264
  %48 = load ptr, ptr %47, align 8, !tbaa !11
  %49 = getelementptr inbounds nuw i8, ptr %48, i64 32
  %50 = load ptr, ptr %49, align 8, !tbaa !18
  %.not45 = icmp eq ptr %50, null
  br i1 %.not45, label %53, label %51

51:                                               ; preds = %46
  call void %50(ptr noundef nonnull %36, ptr noundef nonnull %0) #6
  br label %53

.thread54:                                        ; preds = %45, %22, %18
  %52 = call i32 @BIO_free(ptr noundef nonnull %16) #6
  br label %63

53:                                               ; preds = %51, %46
  %54 = call i32 @BIO_free(ptr noundef nonnull %16) #6
  call void @llvm.lifetime.start.p0(i64 160, ptr nonnull %10) #6
  call void @llvm.lifetime.start.p0(i64 4, ptr nonnull %11) #6
  store i32 2, ptr %11, align 4, !tbaa !19
  call void @OSSL_PARAM_construct_int(ptr dead_on_unwind nonnull writable sret(%struct.ossl_param_st) align 8 %10, ptr noundef nonnull @.str.3, ptr noundef nonnull %11) #6
  %55 = getelementptr inbounds nuw i8, ptr %10, i64 40
  call void @llvm.lifetime.start.p0(i64 40, ptr nonnull %12) #6
  %56 = getelementptr inbounds nuw i8, ptr %0, i64 264
  %57 = load ptr, ptr %56, align 8, !tbaa !11
  %58 = getelementptr inbounds nuw i8, ptr %57, i64 8
  %59 = load ptr, ptr %58, align 8, !tbaa !20
  call void @OSSL_PARAM_construct_utf8_string(ptr dead_on_unwind nonnull writable sret(%struct.ossl_param_st) align 8 %12, ptr noundef nonnull @.str.4, ptr noundef %59, i64 noundef 0) #6
  call void @llvm.memcpy.p0.p0.i64(ptr noundef nonnull align 8 dereferenceable(40) %55, ptr noundef nonnull align 8 dereferenceable(40) %12, i64 40, i1 false), !tbaa.struct !21
  call void @llvm.lifetime.end.p0(i64 40, ptr nonnull %12) #6
  %60 = getelementptr inbounds nuw i8, ptr %10, i64 80
  call void @llvm.lifetime.start.p0(i64 40, ptr nonnull %13) #6
  call void @OSSL_PARAM_construct_octet_string(ptr dead_on_unwind nonnull writable sret(%struct.ossl_param_st) align 8 %13, ptr noundef nonnull @.str.5, ptr noundef nonnull %8, i64 noundef 8) #6
  call void @llvm.memcpy.p0.p0.i64(ptr noundef nonnull align 16 dereferenceable(40) %60, ptr noundef nonnull align 8 dereferenceable(40) %13, i64 40, i1 false), !tbaa.struct !21
  call void @llvm.lifetime.end.p0(i64 40, ptr nonnull %13) #6
  %61 = getelementptr inbounds nuw i8, ptr %10, i64 120
  call void @llvm.lifetime.start.p0(i64 40, ptr nonnull %14) #6
  call void @OSSL_PARAM_construct_end(ptr dead_on_unwind nonnull writable sret(%struct.ossl_param_st) align 8 %14) #6
  call void @llvm.memcpy.p0.p0.i64(ptr noundef nonnull align 8 dereferenceable(40) %61, ptr noundef nonnull align 8 dereferenceable(40) %14, i64 40, i1 false), !tbaa.struct !21
  call void @llvm.lifetime.end.p0(i64 40, ptr nonnull %14) #6
  %62 = call i32 %3(ptr noundef nonnull %10, ptr noundef %4) #6
  call void @llvm.lifetime.end.p0(i64 4, ptr nonnull %11) #6
  call void @llvm.lifetime.end.p0(i64 160, ptr nonnull %10) #6
  br label %63

63:                                               ; preds = %.thread54, %.thread, %53
  %.036 = phi i32 [ %62, %53 ], [ 0, %.thread ], [ 1, %.thread54 ]
  %.035 = phi ptr [ null, %53 ], [ %16, %.thread ], [ null, %.thread54 ]
  %64 = call i32 @BIO_free(ptr noundef %.035) #6
  %65 = getelementptr inbounds nuw i8, ptr %0, i64 264
  %66 = load ptr, ptr %65, align 8, !tbaa !11
  %67 = getelementptr inbounds nuw i8, ptr %66, i64 40
  %68 = load ptr, ptr %67, align 8, !tbaa !25
  %69 = load ptr, ptr %8, align 8, !tbaa !12
  call void %68(ptr noundef %69) #6
  br label %70

70:                                               ; preds = %7, %63
  %.0 = phi i32 [ %.036, %63 ], [ 0, %7 ]
  call void @llvm.lifetime.end.p0(i64 8, ptr nonnull %8) #6
  ret i32 %.0
}